target datalayout = "e-m:e-p270:32:32-p271:32:32-p272:64:64-i64:64-i128:128-f80:128-n8:16:32:64-S128"
target triple = "x86_64-pc-linux-gnu"

%struct.FunctionCallInfoBaseData = type { ptr, ptr, ptr, i32, i8, i16, [0 x %struct.NullableDatum] }
%struct.NullableDatum = type { i64, i8 }
%struct.spgChooseIn = type { i64, i64, i32, i8, i8, i64, i32, ptr }
%struct.spgChooseOut = type { i32, %union.anon }
%union.anon = type { %struct.anon.1 }
%struct.anon.1 = type { i8, i64, i32, ptr, i32, i8, i64 }
%struct.anon = type { i32, i32, i64 }

; Function Attrs: inlinehint nounwind uwtable
define internal i64 @PointerGetDatum(ptr noundef %0) #2 {
  %2 = alloca ptr, align 8
  store ptr %0, ptr %2, align 8
  %3 = load ptr, ptr %2, align 8
  %4 = ptrtoint ptr %3 to i64
  ret i64 %4
}

; Function Attrs: inlinehint nounwind uwtable
define internal i64 @PointPGetDatum(ptr noundef %0) #2 {
  %2 = alloca ptr, align 8
  store ptr %0, ptr %2, align 8
  %3 = load ptr, ptr %2, align 8
  %4 = call i64 @PointerGetDatum(ptr noundef %3)
  ret i64 %4
}

; Function Attrs: inlinehint nounwind uwtable
define internal ptr @DatumGetPointP(i64 noundef %0) #2 {
  %2 = alloca i64, align 8
  store i64 %0, ptr %2, align 8
  %3 = load i64, ptr %2, align 8
  %4 = call ptr @DatumGetPointer(i64 noundef %3)
  ret ptr %4
}

; Function Attrs: inlinehint nounwind uwtable
define internal ptr @DatumGetPointer(i64 noundef %0) #2 {
  %2 = alloca i64, align 8
  store i64 %0, ptr %2, align 8
  %3 = load i64, ptr %2, align 8
  %4 = inttoptr i64 %3 to ptr
  ret ptr %4
}

; Function Attrs: nounwind uwtable
define dso_local i64 @spg_quad_choose(ptr noundef %0) #0 {
  %2 = alloca i64, align 8
  %3 = alloca ptr, align 8
  %4 = alloca ptr, align 8
  %5 = alloca ptr, align 8
  %6 = alloca ptr, align 8
  %7 = alloca ptr, align 8
  %8 = alloca i32, align 4
  store ptr %0, ptr %3, align 8
  call void @llvm.lifetime.start.p0(i64 8, ptr %4) #6
  %9 = load ptr, ptr %3, align 8
  %10 = getelementptr inbounds nuw %struct.FunctionCallInfoBaseData, ptr %9, i32 0, i32 6
  %11 = getelementptr inbounds [0 x %struct.NullableDatum], ptr %10, i64 0, i64 0
  %12 = getelementptr inbounds nuw %struct.NullableDatum, ptr %11, i32 0, i32 0
  %13 = load i64, ptr %12, align 8
  %14 = call ptr @DatumGetPointer(i64 noundef %13)
  store ptr %14, ptr %4, align 8
  call void @llvm.lifetime.start.p0(i64 8, ptr %5) #6
  %15 = load ptr, ptr %3, align 8
  %16 = getelementptr inbounds nuw %struct.FunctionCallInfoBaseData, ptr %15, i32 0, i32 6
  %17 = getelementptr inbounds [0 x %struct.NullableDatum], ptr %16, i64 0, i64 1
  %18 = getelementptr inbounds nuw %struct.NullableDatum, ptr %17, i32 0, i32 0
  %19 = load i64, ptr %18, align 8
  %20 = call ptr @DatumGetPointer(i64 noundef %19)
  store ptr %20, ptr %5, align 8
  call void @llvm.lifetime.start.p0(i64 8, ptr %6) #6
  %21 = load ptr, ptr %4, align 8
  %22 = getelementptr inbounds nuw %struct.spgChooseIn, ptr %21, i32 0, i32 0
  %23 = load i64, ptr %22, align 8
  %24 = call ptr @DatumGetPointP(i64 noundef %23)
  store ptr %24, ptr %6, align 8
  call void @llvm.lifetime.start.p0(i64 8, ptr %7) #6
  %25 = load ptr, ptr %4, align 8
  %26 = getelementptr inbounds nuw %struct.spgChooseIn, ptr %25, i32 0, i32 3
  %27 = load i8, ptr %26, align 4, !range !4, !noundef !5
  %28 = trunc i8 %27 to i1
  br i1 %28, label %29, label %40

29:                                               ; preds = %1
  %30 = load ptr, ptr %5, align 8
  %31 = getelementptr inbounds nuw %struct.spgChooseOut, ptr %30, i32 0, i32 0
  store i32 1, ptr %31, align 8
  %32 = load ptr, ptr %5, align 8
  %33 = getelementptr inbounds nuw %struct.spgChooseOut, ptr %32, i32 0, i32 1
  %34 = getelementptr inbounds nuw %struct.anon, ptr %33, i32 0, i32 1
  store i32 0, ptr %34, align 4
  %35 = load ptr, ptr %6, align 8
  %36 = call i64 @PointPGetDatum(ptr noundef %35)
  %37 = load ptr, ptr %5, align 8
  %38 = getelementptr inbounds nuw %struct.spgChooseOut, ptr %37, i32 0, i32 1
  %39 = getelementptr inbounds nuw %struct.anon, ptr %38, i32 0, i32 2
  store i64 %36, ptr %39, align 8
  store i64 0, ptr %2, align 8
  store i32 1, ptr %8, align 4
  br label %63

40:                                               ; preds = %1
  %41 = load ptr, ptr %4, align 8
  %42 = getelementptr inbounds nuw %struct.spgChooseIn, ptr %41, i32 0, i32 5
  %43 = load i64, ptr %42, align 8
  %44 = call ptr @DatumGetPointP(i64 noundef %43)
  store ptr %44, ptr %7, align 8
  %45 = load ptr, ptr %5, align 8
  %46 = getelementptr inbounds nuw %struct.spgChooseOut, ptr %45, i32 0, i32 0
  store i32 1, ptr %46, align 8
  %47 = load ptr, ptr %7, align 8
  %48 = load ptr, ptr %6, align 8
  %49 = call signext i16 @getQuadrant(ptr noundef %47, ptr noundef %48)
  %50 = sext i16 %49 to i32
  %51 = sub i32 %50, 1
  %52 = load ptr, ptr %5, align 8
  %53 = getelementptr inbounds nuw %struct.spgChooseOut, ptr %52, i32 0, i32 1
  %54 = getelementptr inbounds nuw %struct.anon, ptr %53, i32 0, i32 0
  store i32 %51, ptr %54, align 8
  %55 = load ptr, ptr %5, align 8
  %56 = getelementptr inbounds nuw %struct.spgChooseOut, ptr %55, i32 0, i32 1
  %57 = getelementptr inbounds nuw %struct.anon, ptr %56, i32 0, i32 1
  store i32 0, ptr %57, align 4
  %58 = load ptr, ptr %6, align 8
  %59 = call i64 @PointPGetDatum(ptr noundef %58)
  %60 = load ptr, ptr %5, align 8
  %61 = getelementptr inbounds nuw %struct.spgChooseOut, ptr %60, i32 0, i32 1
  %62 = getelementptr inbounds nuw %struct.anon, ptr %61, i32 0, i32 2
  store i64 %59, ptr %62, align 8
  store i64 0, ptr %2, align 8
  store i32 1, ptr %8, align 4
  br label %63

63:                                               ; preds = %40, %29
  call void @llvm.lifetime.end.p0(i64 8, ptr %7) #6
  call void @llvm.lifetime.end.p0(i64 8, ptr %6) #6
  call void @llvm.lifetime.end.p0(i64 8, ptr %5) #6
  call void @llvm.lifetime.end.p0(i64 8, ptr %4) #6
  %64 = load i64, ptr %2, align 8
  ret i64 %64
}