; Function Attrs: nounwind uwtable
define dso_local noundef i64 @spg_quad_choose(ptr noundef readonly captures(none) %0) local_unnamed_addr #2 {
  %2 = getelementptr inbounds nuw i8, ptr %0, i64 32
  %3 = load i64, ptr %2, align 8
  %4 = inttoptr i64 %3 to ptr
  %5 = getelementptr inbounds nuw i8, ptr %0, i64 48
  %6 = load i64, ptr %5, align 8
  %7 = inttoptr i64 %6 to ptr
  %8 = load i64, ptr %4, align 8
  %9 = getelementptr inbounds nuw i8, ptr %4, i64 20
  %10 = load i8, ptr %9, align 4, !range !4, !noundef !5
  %11 = trunc nuw i8 %10 to i1
  br i1 %11, label %12, label %13

12:                                               ; preds = %1
  store i32 1, ptr %7, align 8
  br label %22

13:                                               ; preds = %1
  %14 = inttoptr i64 %8 to ptr
  %15 = getelementptr inbounds nuw i8, ptr %4, i64 24
  %16 = load i64, ptr %15, align 8
  %17 = inttoptr i64 %16 to ptr
  store i32 1, ptr %7, align 8
  %18 = tail call fastcc signext i16 @getQuadrant(ptr noundef %17, ptr noundef %14)
  %19 = zext nneg i16 %18 to i32
  %20 = add nsw i32 %19, -1
  %21 = getelementptr inbounds nuw i8, ptr %7, i64 8
  store i32 %20, ptr %21, align 8
  br label %22

22:                                               ; preds = %13, %12
  %23 = getelementptr inbounds nuw i8, ptr %7, i64 12
  store i32 0, ptr %23, align 4
  %24 = getelementptr inbounds nuw i8, ptr %7, i64 16
  store i64 %8, ptr %24, align 8
  ret i64 0
}